; Function Attrs: mustprogress uwtable
define hidden void @_ZN7datalog7context11updt_paramsERK10params_ref(ptr noundef nonnull align 8 dereferenceable(3556) %this, ptr noundef nonnull align 8 dereferenceable(8) %p) local_unnamed_addr #3 align 2 {
entry:
  %ref.tmp.i = alloca %class.symbol, align 8
  %m_params_ref = getelementptr inbounds i8, ptr %this, i64 24
  tail call void @_ZN10params_ref4copyERKS_(ptr noundef nonnull align 8 dereferenceable(8) %m_params_ref, ptr noundef nonnull align 8 dereferenceable(8) %p)
  %m_engine = getelementptr inbounds i8, ptr %this, i64 3504
  %0 = load ptr, ptr %m_engine, align 8
  %tobool.not = icmp eq ptr %0, null
  br i1 %tobool.not, label %if.end, label %if.then

if.then:                                          ; preds = %entry
  %vtable = load ptr, ptr %0, align 8
  %vfn = getelementptr inbounds i8, ptr %vtable, i64 168
  %1 = load ptr, ptr %vfn, align 8
  tail call void %1(ptr noundef nonnull align 8 dereferenceable(48) %0)
  br label %if.end

if.end:                                           ; preds = %if.then, %entry
  %m_params = getelementptr inbounds i8, ptr %this, i64 32
  %2 = load ptr, ptr %m_params, align 8
  %3 = load ptr, ptr %2, align 8
  %g.i = getelementptr inbounds i8, ptr %2, i64 8
  %call.i = tail call noundef zeroext i1 @_ZNK10params_ref8get_boolEPKcRKS_b(ptr noundef nonnull align 8 dereferenceable(8) %3, ptr noundef nonnull @.str.120, ptr noundef nonnull align 8 dereferenceable(8) %g.i, i1 noundef zeroext false)
  %m_generate_proof_trace = getelementptr inbounds i8, ptr %this, i64 40
  %frombool = zext i1 %call.i to i8
  store i8 %frombool, ptr %m_generate_proof_trace, align 8
  %4 = load ptr, ptr %m_params, align 8
  %5 = load ptr, ptr %4, align 8
  %g.i1 = getelementptr inbounds i8, ptr %4, i64 8
  %call.i2 = tail call noundef zeroext i1 @_ZNK10params_ref8get_boolEPKcRKS_b(ptr noundef nonnull align 8 dereferenceable(8) %5, ptr noundef nonnull @.str.101, ptr noundef nonnull align 8 dereferenceable(8) %g.i1, i1 noundef zeroext true)
  %m_unbound_compressor = getelementptr inbounds i8, ptr %this, i64 41
  %frombool7 = zext i1 %call.i2 to i8
  store i8 %frombool7, ptr %m_unbound_compressor, align 1
  %6 = load ptr, ptr %m_params, align 8
  call void @llvm.lifetime.start.p0(i64 8, ptr nonnull %ref.tmp.i)
  %7 = load ptr, ptr %6, align 8
  %g.i3 = getelementptr inbounds i8, ptr %6, i64 8
  call void @_ZN6symbolC1EPKc(ptr noundef nonnull align 8 dereferenceable(8) %ref.tmp.i, ptr noundef nonnull @.str.94)
  %call.i4 = call ptr @_ZNK10params_ref7get_symEPKcRKS_RK6symbol(ptr noundef nonnull align 8 dereferenceable(8) %7, ptr noundef nonnull @.str.92, ptr noundef nonnull align 8 dereferenceable(8) %g.i3, ptr noundef nonnull align 8 dereferenceable(8) %ref.tmp.i)
  call void @llvm.lifetime.end.p0(i64 8, ptr nonnull %ref.tmp.i)
  %m_default_relation = getelementptr inbounds i8, ptr %this, i64 48
  store ptr %call.i4, ptr %m_default_relation, align 8
  ret void
}